target datalayout = "e-m:e-p270:32:32-p271:32:32-p272:64:64-i64:64-i128:128-f80:128-n8:16:32:64-S128"
target triple = "x86_64-pc-linux-gnu"

@.str = private unnamed_addr constant [38 x i8] c"SDL.renderer.create.gpu.shaders_spirv\00", align 1
@.str.1 = private unnamed_addr constant [36 x i8] c"SDL.gpu.device.create.shaders.spirv\00", align 1
@.str.2 = private unnamed_addr constant [37 x i8] c"SDL.renderer.create.gpu.shaders_dxil\00", align 1
@.str.3 = private unnamed_addr constant [35 x i8] c"SDL.gpu.device.create.shaders.dxil\00", align 1
@.str.4 = private unnamed_addr constant [36 x i8] c"SDL.renderer.create.gpu.shaders_msl\00", align 1
@.str.5 = private unnamed_addr constant [34 x i8] c"SDL.gpu.device.create.shaders.msl\00", align 1

; Function Attrs: nounwind uwtable
define hidden void @GPU_FillSupportedShaderFormats(i32 noundef %0) #0 {
  %2 = alloca i32, align 4
  %3 = alloca i8, align 1
  store i32 %0, ptr %2, align 4
  call void @llvm.lifetime.start.p0(i64 1, ptr %3) #4
  store i8 0, ptr %3, align 1
  %4 = load i32, ptr %2, align 4
  %5 = call zeroext i1 @SDL_GetBooleanProperty_REAL(i32 noundef %4, ptr noundef @.str, i1 noundef zeroext false)
  br i1 %5, label %6, label %9

6:                                                ; preds = %1
  %7 = load i32, ptr %2, align 4
  %8 = call zeroext i1 @SDL_SetBooleanProperty_REAL(i32 noundef %7, ptr noundef @.str.1, i1 noundef zeroext true)
  store i8 1, ptr %3, align 1
  br label %9

9:                                                ; preds = %6, %1
  %10 = load i32, ptr %2, align 4
  %11 = call zeroext i1 @SDL_GetBooleanProperty_REAL(i32 noundef %10, ptr noundef @.str.2, i1 noundef zeroext false)
  br i1 %11, label %12, label %15

12:                                               ; preds = %9
  %13 = load i32, ptr %2, align 4
  %14 = call zeroext i1 @SDL_SetBooleanProperty_REAL(i32 noundef %13, ptr noundef @.str.3, i1 noundef zeroext false)
  store i8 1, ptr %3, align 1
  br label %15

15:                                               ; preds = %12, %9
  %16 = load i32, ptr %2, align 4
  %17 = call zeroext i1 @SDL_GetBooleanProperty_REAL(i32 noundef %16, ptr noundef @.str.4, i1 noundef zeroext false)
  br i1 %17, label %18, label %21

18:                                               ; preds = %15
  %19 = load i32, ptr %2, align 4
  %20 = call zeroext i1 @SDL_SetBooleanProperty_REAL(i32 noundef %19, ptr noundef @.str.5, i1 noundef zeroext false)
  store i8 1, ptr %3, align 1
  br label %21

21:                                               ; preds = %18, %15
  %22 = load i8, ptr %3, align 1, !range !8, !noundef !9
  %23 = trunc i8 %22 to i1
  br i1 %23, label %31, label %24

24:                                               ; preds = %21
  %25 = load i32, ptr %2, align 4
  %26 = call zeroext i1 @SDL_SetBooleanProperty_REAL(i32 noundef %25, ptr noundef @.str.1, i1 noundef zeroext true)
  %27 = load i32, ptr %2, align 4
  %28 = call zeroext i1 @SDL_SetBooleanProperty_REAL(i32 noundef %27, ptr noundef @.str.3, i1 noundef zeroext false)
  %29 = load i32, ptr %2, align 4
  %30 = call zeroext i1 @SDL_SetBooleanProperty_REAL(i32 noundef %29, ptr noundef @.str.5, i1 noundef zeroext false)
  br label %31

31:                                               ; preds = %24, %21
  call void @llvm.lifetime.end.p0(i64 1, ptr %3) #4
  ret void
}