; Function Attrs: nounwind uwtable
define hidden void @GPU_FillSupportedShaderFormats(i32 noundef %0) local_unnamed_addr #0 {
  %2 = tail call zeroext i1 @SDL_GetBooleanProperty_REAL(i32 noundef %0, ptr noundef nonnull @.str, i1 noundef zeroext false) #5
  br i1 %2, label %3, label %5

3:                                                ; preds = %1
  %4 = tail call zeroext i1 @SDL_SetBooleanProperty_REAL(i32 noundef %0, ptr noundef nonnull @.str.1, i1 noundef zeroext true) #5
  br label %5

5:                                                ; preds = %3, %1
  %6 = tail call zeroext i1 @SDL_GetBooleanProperty_REAL(i32 noundef %0, ptr noundef nonnull @.str.2, i1 noundef zeroext false) #5
  br i1 %6, label %.thread, label %7

7:                                                ; preds = %5
  %8 = tail call zeroext i1 @SDL_GetBooleanProperty_REAL(i32 noundef %0, ptr noundef nonnull @.str.4, i1 noundef zeroext false) #5
  br i1 %8, label %.thread12.sink.split, label %11

.thread:                                          ; preds = %5
  %9 = tail call zeroext i1 @SDL_SetBooleanProperty_REAL(i32 noundef %0, ptr noundef nonnull @.str.3, i1 noundef zeroext false) #5
  %10 = tail call zeroext i1 @SDL_GetBooleanProperty_REAL(i32 noundef %0, ptr noundef nonnull @.str.4, i1 noundef zeroext false) #5
  br i1 %10, label %.thread12.sink.split, label %.thread12

11:                                               ; preds = %7
  br i1 %2, label %.thread12, label %12

12:                                               ; preds = %11
  %13 = tail call zeroext i1 @SDL_SetBooleanProperty_REAL(i32 noundef %0, ptr noundef nonnull @.str.1, i1 noundef zeroext true) #5
  %14 = tail call zeroext i1 @SDL_SetBooleanProperty_REAL(i32 noundef %0, ptr noundef nonnull @.str.3, i1 noundef zeroext false) #5
  br label %.thread12.sink.split

.thread12.sink.split:                             ; preds = %7, %.thread, %12
  %15 = tail call zeroext i1 @SDL_SetBooleanProperty_REAL(i32 noundef %0, ptr noundef nonnull @.str.5, i1 noundef zeroext false) #5
  br label %.thread12

.thread12:                                        ; preds = %.thread12.sink.split, %.thread, %11
  ret void
}